target datalayout = "e-m:e-p270:32:32-p271:32:32-p272:64:64-i64:64-i128:128-f80:128-n8:16:32:64-S128"
target triple = "x86_64-pc-linux-gnu"

@.str.21 = private unnamed_addr constant [2 x i8] c"\0A\00", align 1
@.str.22 = private unnamed_addr constant [66 x i8] c"Usage: mergecap [options] -w <outfile>|- <infile> [<infile> ...]\0A\00", align 1
@.str.23 = private unnamed_addr constant [9 x i8] c"Output:\0A\00", align 1
@.str.24 = private unnamed_addr constant [58 x i8] c"  -a                concatenate rather than merge files.\0A\00", align 1
@.str.25 = private unnamed_addr constant [68 x i8] c"                    default is to merge based on frame timestamps.\0A\00", align 1
@.str.26 = private unnamed_addr constant [66 x i8] c"  -s <snaplen>      truncate packets to <snaplen> bytes of data.\0A\00", align 1
@.str.27 = private unnamed_addr constant [77 x i8] c"  -w <outfile>|-    set the output filename to <outfile> or '-' for stdout.\0A\00", align 1
@.str.28 = private unnamed_addr constant [107 x i8] c"                    if the output filename has the .gz extension, it will be compressed to a gzip archive\0A\00", align 1
@.str.29 = private unnamed_addr constant [66 x i8] c"  -F <capture type> set the output file type; default is pcapng.\0A\00", align 1
@.str.30 = private unnamed_addr constant [68 x i8] c"                    an empty \22-F\22 option will list the file types.\0A\00", align 1
@.str.31 = private unnamed_addr constant [94 x i8] c"  -I <IDB merge mode> set the merge mode for Interface Description Blocks; default is 'all'.\0A\00", align 1
@.str.32 = private unnamed_addr constant [69 x i8] c"                    an empty \22-I\22 option will list the merge modes.\0A\00", align 1
@.str.33 = private unnamed_addr constant [81 x i8] c"  --compress <type> compress the output file using the type compression format.\0A\00", align 1
@.str.34 = private unnamed_addr constant [16 x i8] c"Miscellaneous:\0A\00", align 1
@.str.35 = private unnamed_addr constant [49 x i8] c"  -h, --help        display this help and exit.\0A\00", align 1
@.str.36 = private unnamed_addr constant [37 x i8] c"  -V                verbose output.\0A\00", align 1
@.str.37 = private unnamed_addr constant [57 x i8] c"  -v, --version     print version information and exit.\0A\00", align 1

; Function Attrs: null_pointer_is_valid sspstrong uwtable
define internal void @print_usage(ptr noundef %0) #0 {
  %2 = alloca ptr, align 8
  store ptr %0, ptr %2, align 8
  %3 = load ptr, ptr %2, align 8
  %4 = call i32 (ptr, i32, ptr, ...) @__fprintf_chk(ptr noundef %3, i32 noundef 2, ptr noundef @.str.21)
  %5 = load ptr, ptr %2, align 8
  %6 = call i32 (ptr, i32, ptr, ...) @__fprintf_chk(ptr noundef %5, i32 noundef 2, ptr noundef @.str.22)
  %7 = load ptr, ptr %2, align 8
  %8 = call i32 (ptr, i32, ptr, ...) @__fprintf_chk(ptr noundef %7, i32 noundef 2, ptr noundef @.str.21)
  %9 = load ptr, ptr %2, align 8
  %10 = call i32 (ptr, i32, ptr, ...) @__fprintf_chk(ptr noundef %9, i32 noundef 2, ptr noundef @.str.23)
  %11 = load ptr, ptr %2, align 8
  %12 = call i32 (ptr, i32, ptr, ...) @__fprintf_chk(ptr noundef %11, i32 noundef 2, ptr noundef @.str.24)
  %13 = load ptr, ptr %2, align 8
  %14 = call i32 (ptr, i32, ptr, ...) @__fprintf_chk(ptr noundef %13, i32 noundef 2, ptr noundef @.str.25)
  %15 = load ptr, ptr %2, align 8
  %16 = call i32 (ptr, i32, ptr, ...) @__fprintf_chk(ptr noundef %15, i32 noundef 2, ptr noundef @.str.26)
  %17 = load ptr, ptr %2, align 8
  %18 = call i32 (ptr, i32, ptr, ...) @__fprintf_chk(ptr noundef %17, i32 noundef 2, ptr noundef @.str.27)
  %19 = load ptr, ptr %2, align 8
  %20 = call i32 (ptr, i32, ptr, ...) @__fprintf_chk(ptr noundef %19, i32 noundef 2, ptr noundef @.str.28)
  %21 = load ptr, ptr %2, align 8
  %22 = call i32 (ptr, i32, ptr, ...) @__fprintf_chk(ptr noundef %21, i32 noundef 2, ptr noundef @.str.29)
  %23 = load ptr, ptr %2, align 8
  %24 = call i32 (ptr, i32, ptr, ...) @__fprintf_chk(ptr noundef %23, i32 noundef 2, ptr noundef @.str.30)
  %25 = load ptr, ptr %2, align 8
  %26 = call i32 (ptr, i32, ptr, ...) @__fprintf_chk(ptr noundef %25, i32 noundef 2, ptr noundef @.str.31)
  %27 = load ptr, ptr %2, align 8
  %28 = call i32 (ptr, i32, ptr, ...) @__fprintf_chk(ptr noundef %27, i32 noundef 2, ptr noundef @.str.32)
  %29 = load ptr, ptr %2, align 8
  %30 = call i32 (ptr, i32, ptr, ...) @__fprintf_chk(ptr noundef %29, i32 noundef 2, ptr noundef @.str.33)
  %31 = load ptr, ptr %2, align 8
  %32 = call i32 (ptr, i32, ptr, ...) @__fprintf_chk(ptr noundef %31, i32 noundef 2, ptr noundef @.str.21)
  %33 = load ptr, ptr %2, align 8
  %34 = call i32 (ptr, i32, ptr, ...) @__fprintf_chk(ptr noundef %33, i32 noundef 2, ptr noundef @.str.34)
  %35 = load ptr, ptr %2, align 8
  %36 = call i32 (ptr, i32, ptr, ...) @__fprintf_chk(ptr noundef %35, i32 noundef 2, ptr noundef @.str.35)
  %37 = load ptr, ptr %2, align 8
  %38 = call i32 (ptr, i32, ptr, ...) @__fprintf_chk(ptr noundef %37, i32 noundef 2, ptr noundef @.str.36)
  %39 = load ptr, ptr %2, align 8
  %40 = call i32 (ptr, i32, ptr, ...) @__fprintf_chk(ptr noundef %39, i32 noundef 2, ptr noundef @.str.37)
  ret void
}