; Function Attrs: null_pointer_is_valid sspstrong uwtable
define internal fastcc void @print_usage(ptr noundef %0) unnamed_addr #0 {
  %2 = tail call i32 (ptr, i32, ptr, ...) @__fprintf_chk(ptr noundef %0, i32 noundef 2, ptr noundef nonnull @.str.21)
  %3 = tail call i32 (ptr, i32, ptr, ...) @__fprintf_chk(ptr noundef %0, i32 noundef 2, ptr noundef nonnull @.str.22)
  %4 = tail call i32 (ptr, i32, ptr, ...) @__fprintf_chk(ptr noundef %0, i32 noundef 2, ptr noundef nonnull @.str.21)
  %5 = tail call i32 (ptr, i32, ptr, ...) @__fprintf_chk(ptr noundef %0, i32 noundef 2, ptr noundef nonnull @.str.23)
  %6 = tail call i32 (ptr, i32, ptr, ...) @__fprintf_chk(ptr noundef %0, i32 noundef 2, ptr noundef nonnull @.str.24)
  %7 = tail call i32 (ptr, i32, ptr, ...) @__fprintf_chk(ptr noundef %0, i32 noundef 2, ptr noundef nonnull @.str.25)
  %8 = tail call i32 (ptr, i32, ptr, ...) @__fprintf_chk(ptr noundef %0, i32 noundef 2, ptr noundef nonnull @.str.26)
  %9 = tail call i32 (ptr, i32, ptr, ...) @__fprintf_chk(ptr noundef %0, i32 noundef 2, ptr noundef nonnull @.str.27)
  %10 = tail call i32 (ptr, i32, ptr, ...) @__fprintf_chk(ptr noundef %0, i32 noundef 2, ptr noundef nonnull @.str.28)
  %11 = tail call i32 (ptr, i32, ptr, ...) @__fprintf_chk(ptr noundef %0, i32 noundef 2, ptr noundef nonnull @.str.29)
  %12 = tail call i32 (ptr, i32, ptr, ...) @__fprintf_chk(ptr noundef %0, i32 noundef 2, ptr noundef nonnull @.str.30)
  %13 = tail call i32 (ptr, i32, ptr, ...) @__fprintf_chk(ptr noundef %0, i32 noundef 2, ptr noundef nonnull @.str.31)
  %14 = tail call i32 (ptr, i32, ptr, ...) @__fprintf_chk(ptr noundef %0, i32 noundef 2, ptr noundef nonnull @.str.32)
  %15 = tail call i32 (ptr, i32, ptr, ...) @__fprintf_chk(ptr noundef %0, i32 noundef 2, ptr noundef nonnull @.str.33)
  %16 = tail call i32 (ptr, i32, ptr, ...) @__fprintf_chk(ptr noundef %0, i32 noundef 2, ptr noundef nonnull @.str.21)
  %17 = tail call i32 (ptr, i32, ptr, ...) @__fprintf_chk(ptr noundef %0, i32 noundef 2, ptr noundef nonnull @.str.34)
  %18 = tail call i32 (ptr, i32, ptr, ...) @__fprintf_chk(ptr noundef %0, i32 noundef 2, ptr noundef nonnull @.str.35)
  %19 = tail call i32 (ptr, i32, ptr, ...) @__fprintf_chk(ptr noundef %0, i32 noundef 2, ptr noundef nonnull @.str.36)
  %20 = tail call i32 (ptr, i32, ptr, ...) @__fprintf_chk(ptr noundef %0, i32 noundef 2, ptr noundef nonnull @.str.37)
  ret void
}